target datalayout = "e-m:e-p270:32:32-p271:32:32-p272:64:64-i64:64-i128:128-f80:128-n8:16:32:64-S128"
target triple = "x86_64-pc-linux-gnu"

%"struct.Type::TypeInfo" = type { i32, i8, ptr, i8, i32, i32 }
%class.VLoop = type { ptr, ptr, i8, ptr, ptr, ptr, ptr }
%class.Node_List = type <{ %class.Node_Array, i32, [4 x i8] }>
%class.Node_Array = type { ptr, i32, ptr }
%class.Node = type <{ ptr, ptr, ptr, i32, i32, i32, i32, i32, i32, i32, [4 x i8] }>
%class.Arena = type { i8, i8, i64, ptr, ptr, ptr, ptr }
%class.VectorSet = type { i32, ptr, i32, ptr }
%class.GrowableArrayBase = type { i32, i32 }
%class.GrowableArrayMetadata = type { i64 }
%class.GrowableArray.3 = type { %class.GrowableArrayWithAllocator.4, %class.GrowableArrayMetadata }
%class.GrowableArrayWithAllocator.4 = type { %class.GrowableArrayView.5 }
%class.GrowableArrayView.5 = type { %class.GrowableArrayBase, ptr }
%class.VPointer = type { ptr, ptr, ptr, ptr, i32, i32, ptr, ptr, i8, i32 }
%class.PhaseIdealLoop = type <{ %class.PhaseTransform, %class.Node_List, ptr, ptr, ptr, i32, [4 x i8], ptr, i8, [7 x i8], %class.Node_List, %class.Node_List, %class.GrowableArray.16, i32, i32, ptr, ptr, ptr, i32, i8, [3 x i8], i32, i8, [3 x i8] }>
%class.PhaseTransform = type { ptr, %class.Phase }
%class.Phase = type { i32, ptr }
%class.GrowableArray.16 = type { %class.GrowableArrayWithAllocator.17, %class.GrowableArrayMetadata }
%class.GrowableArrayWithAllocator.17 = type { %class.GrowableArrayView.18 }
%class.GrowableArrayView.18 = type { %class.GrowableArrayBase, ptr }
%class.Type = type <{ ptr, ptr, i32, [4 x i8] }>
%class.Compile = type <{ %class.Phase, i32, %class.Options, [4 x i8], ptr, i32, [4 x i8], ptr, ptr, ptr, ptr, ptr, i32, i32, i32, [4 x i8], i64, i8, i8, [2 x i8], i32, i8, i8, i8, i8, i8, i8, i8, i8, i8, [3 x i8], i32, i8, [3 x i8], [30 x i32], i8, [3 x i8], i32, i8, i8, i8, i8, i8, i8, i8, i8, i8, i8, i8, i8, i8, [3 x i8], i32, i32, [4 x i8], %class.Arena, ptr, ptr, ptr, ptr, %class.CHeapStringHolder, ptr, %class.GrowableArray.19, %class.GrowableArray.3, %class.GrowableArray.22, %class.GrowableArray.3, %class.GrowableArray.3, %class.GrowableArray.3, %class.GrowableArray.25, %class.GrowableArray.28, ptr, i32, i32, %class.VectorSet, %class.Arena, %class.Arena, ptr, ptr, ptr, ptr, ptr, ptr, ptr, ptr, ptr, %class.Arena, ptr, ptr, %class.CloneMap, i64, ptr, ptr, ptr, i32, i32, [64 x %"struct.Compile::AliasCacheEntry"], ptr, ptr, ptr, ptr, %class.GrowableArray.19, %class.GrowableArray.19, %class.GrowableArray.19, %class.GrowableArray.19, i32, i32, i8, [7 x i8], ptr, ptr, i32, [4 x i8], ptr, ptr, ptr, i32, i32, ptr, ptr, %class.RegMask, ptr, ptr, i32, [4 x i8], ptr, %class.TimeInstant, i32, [4 x i8] }>
%class.Options = type { i8, i8, i8, i8, i8, i8, i8, i8 }
%class.CHeapStringHolder = type { ptr }
%class.GrowableArray.22 = type { %class.GrowableArrayWithAllocator.23, %class.GrowableArrayMetadata }
%class.GrowableArrayWithAllocator.23 = type { %class.GrowableArrayView.24 }
%class.GrowableArrayView.24 = type { %class.GrowableArrayBase, ptr }
%class.GrowableArray.25 = type { %class.GrowableArrayWithAllocator.26, %class.GrowableArrayMetadata }
%class.GrowableArrayWithAllocator.26 = type { %class.GrowableArrayView.27 }
%class.GrowableArrayView.27 = type { %class.GrowableArrayBase, ptr }
%class.GrowableArray.28 = type { %class.GrowableArrayWithAllocator.29, %class.GrowableArrayMetadata }
%class.GrowableArrayWithAllocator.29 = type { %class.GrowableArrayView.30 }
%class.GrowableArrayView.30 = type { %class.GrowableArrayBase, ptr }
%class.CloneMap = type <{ i8, [7 x i8], ptr, i32, [4 x i8] }>
%"struct.Compile::AliasCacheEntry" = type { ptr, i32 }
%class.GrowableArray.19 = type { %class.GrowableArrayWithAllocator.20, %class.GrowableArrayMetadata }
%class.GrowableArrayWithAllocator.20 = type { %class.GrowableArrayView.21 }
%class.GrowableArrayView.21 = type { %class.GrowableArrayBase, ptr }
%class.RegMask = type { %union.anon, i32, i32 }
%union.anon = type { [11 x i64] }
%class.TimeInstant = type { %class.CompositeCounterRepresentation }
%class.CompositeCounterRepresentation = type { %class.Representation }
%class.Representation = type { %class.PairRep }
%class.PairRep = type { i64, i64 }
%class.PhaseValues = type { %class.PhaseTransform, i8, ptr, ptr, [137 x ptr], [137 x ptr], [20 x ptr] }

@_ZN4Type10_type_infoE = external global [0 x %"struct.Type::TypeInfo"], align 8

; Function Attrs: mustprogress nounwind uwtable
define linkonce_odr hidden noundef ptr @_ZN11PhaseValues16hash_find_insertEP4Node(ptr noundef nonnull align 8 dereferenceable(2400) %0, ptr noundef %1) #1 comdat align 2 {
  %3 = alloca ptr, align 8
  %4 = alloca ptr, align 8
  store ptr %0, ptr %3, align 8
  store ptr %1, ptr %4, align 8
  %5 = load ptr, ptr %3, align 8
  %6 = getelementptr inbounds %class.PhaseValues, ptr %5, i32 0, i32 2
  %7 = load ptr, ptr %6, align 8
  %8 = load ptr, ptr %4, align 8
  %9 = call noundef ptr @_ZN8NodeHash16hash_find_insertEP4Node(ptr noundef nonnull align 8 dereferenceable(40) %7, ptr noundef %8)
  ret ptr %9
}

; Function Attrs: mustprogress nounwind uwtable
define linkonce_odr hidden void @_ZN10Node_Array3mapEjP4Node(ptr noundef nonnull align 8 dereferenceable(24) %0, i32 noundef %1, ptr noundef %2) #1 comdat align 2 {
  %4 = alloca ptr, align 8
  %5 = alloca i32, align 4
  %6 = alloca ptr, align 8
  store ptr %0, ptr %4, align 8
  store i32 %1, ptr %5, align 4
  store ptr %2, ptr %6, align 8
  %7 = load ptr, ptr %4, align 8
  %8 = load i32, ptr %5, align 4
  %9 = getelementptr inbounds %class.Node_Array, ptr %7, i32 0, i32 1
  %10 = load i32, ptr %9, align 8
  %11 = icmp uge i32 %8, %10
  br i1 %11, label %12, label %14

12:                                               ; preds = %3
  %13 = load i32, ptr %5, align 4
  call void @_ZN10Node_Array4growEj(ptr noundef nonnull align 8 dereferenceable(24) %7, i32 noundef %13)
  br label %14

14:                                               ; preds = %12, %3
  %15 = load ptr, ptr %6, align 8
  %16 = getelementptr inbounds %class.Node_Array, ptr %7, i32 0, i32 2
  %17 = load ptr, ptr %16, align 8
  %18 = load i32, ptr %5, align 4
  %19 = zext i32 %18 to i64
  %20 = getelementptr inbounds ptr, ptr %17, i64 %19
  store ptr %15, ptr %20, align 8
  ret void
}

; Function Attrs: mustprogress nounwind uwtable
define linkonce_odr hidden noundef ptr @_ZNK5VLoop5phaseEv(ptr noundef nonnull align 8 dereferenceable(56) %0) #1 comdat align 2 {
  %2 = alloca ptr, align 8
  store ptr %0, ptr %2, align 8
  %3 = load ptr, ptr %2, align 8
  %4 = getelementptr inbounds %class.VLoop, ptr %3, i32 0, i32 0
  %5 = load ptr, ptr %4, align 8
  ret ptr %5
}

; Function Attrs: mustprogress nounwind uwtable
define hidden noundef ptr @_ZNK8VPointer15register_if_newEP4Node(ptr noundef nonnull align 8 dereferenceable(64) %0, ptr noundef %1) #1 align 2 {
  %3 = alloca ptr, align 8
  %4 = alloca ptr, align 8
  %5 = alloca ptr, align 8
  %6 = alloca ptr, align 8
  %7 = alloca ptr, align 8
  store ptr %0, ptr %3, align 8
  store ptr %1, ptr %4, align 8
  %8 = load ptr, ptr %3, align 8
  %9 = call noundef ptr @_ZNK8VPointer5phaseEv(ptr noundef nonnull align 8 dereferenceable(64) %8)
  %10 = call noundef nonnull align 8 dereferenceable(2416) ptr @_ZNK14PhaseIdealLoop4igvnEv(ptr noundef nonnull align 8 dereferenceable(237) %9)
  store ptr %10, ptr %5, align 8
  %11 = load ptr, ptr %5, align 8
  %12 = load ptr, ptr %4, align 8
  %13 = call noundef ptr @_ZN11PhaseValues16hash_find_insertEP4Node(ptr noundef nonnull align 8 dereferenceable(2400) %11, ptr noundef %12)
  store ptr %13, ptr %6, align 8
  %14 = load ptr, ptr %6, align 8
  %15 = icmp ne ptr %14, null
  br i1 %15, label %16, label %20

16:                                               ; preds = %2
  %17 = load ptr, ptr %4, align 8
  %18 = load ptr, ptr %5, align 8
  call void @_ZN4Node8destructEP11PhaseValues(ptr noundef nonnull align 8 dereferenceable(52) %17, ptr noundef %18)
  %19 = load ptr, ptr %6, align 8
  store ptr %19, ptr %4, align 8
  br label %27

20:                                               ; preds = %2
  %21 = call noundef ptr @_ZNK8VPointer5phaseEv(ptr noundef nonnull align 8 dereferenceable(64) %8)
  %22 = load ptr, ptr %4, align 8
  %23 = call noundef ptr @_ZN14PhaseIdealLoop14get_early_ctrlEP4Node(ptr noundef nonnull align 8 dereferenceable(237) %21, ptr noundef %22)
  store ptr %23, ptr %7, align 8
  %24 = call noundef ptr @_ZNK8VPointer5phaseEv(ptr noundef nonnull align 8 dereferenceable(64) %8)
  %25 = load ptr, ptr %4, align 8
  %26 = load ptr, ptr %7, align 8
  call void @_ZN14PhaseIdealLoop17register_new_nodeEP4NodeS1_(ptr noundef nonnull align 8 dereferenceable(237) %24, ptr noundef %25, ptr noundef %26)
  br label %27

27:                                               ; preds = %20, %16
  %28 = load ptr, ptr %4, align 8
  ret ptr %28
}

; Function Attrs: mustprogress nounwind uwtable
define linkonce_odr hidden void @_ZN14PhaseIdealLoop8set_ctrlEP4NodeS1_(ptr noundef nonnull align 8 dereferenceable(237) %0, ptr noundef %1, ptr noundef %2) #1 comdat align 2 {
  %4 = alloca ptr, align 8
  %5 = alloca ptr, align 8
  %6 = alloca ptr, align 8
  store ptr %0, ptr %4, align 8
  store ptr %1, ptr %5, align 8
  store ptr %2, ptr %6, align 8
  %7 = load ptr, ptr %4, align 8
  %8 = getelementptr inbounds %class.PhaseIdealLoop, ptr %7, i32 0, i32 1
  %9 = load ptr, ptr %5, align 8
  %10 = getelementptr inbounds %class.Node, ptr %9, i32 0, i32 7
  %11 = load i32, ptr %10, align 8
  %12 = load ptr, ptr %6, align 8
  %13 = ptrtoint ptr %12 to i64
  %14 = add nsw i64 %13, 1
  %15 = inttoptr i64 %14 to ptr
  call void @_ZN10Node_Array3mapEjP4Node(ptr noundef nonnull align 8 dereferenceable(24) %8, i32 noundef %11, ptr noundef %15)
  ret void
}

; Function Attrs: mustprogress nounwind uwtable
define linkonce_odr hidden noundef ptr @_ZNK7Compile4rootEv(ptr noundef nonnull align 8 dereferenceable(2316) %0) #1 comdat align 2 {
  %2 = alloca ptr, align 8
  store ptr %0, ptr %2, align 8
  %3 = load ptr, ptr %2, align 8
  %4 = getelementptr inbounds %class.Compile, ptr %3, i32 0, i32 77
  %5 = load ptr, ptr %4, align 8
  ret ptr %5
}

; Function Attrs: mustprogress nounwind uwtable
define linkonce_odr hidden noundef nonnull align 8 dereferenceable(2416) ptr @_ZNK14PhaseIdealLoop4igvnEv(ptr noundef nonnull align 8 dereferenceable(237) %0) #1 comdat align 2 {
  %2 = alloca ptr, align 8
  store ptr %0, ptr %2, align 8
  %3 = load ptr, ptr %2, align 8
  %4 = getelementptr inbounds %class.PhaseIdealLoop, ptr %3, i32 0, i32 2
  %5 = load ptr, ptr %4, align 8
  ret ptr %5
}

; Function Attrs: mustprogress nounwind uwtable
define linkonce_odr hidden noundef ptr @_ZNK8VPointer5phaseEv(ptr noundef nonnull align 8 dereferenceable(64) %0) #1 comdat align 2 {
  %2 = alloca ptr, align 8
  store ptr %0, ptr %2, align 8
  %3 = load ptr, ptr %2, align 8
  %4 = getelementptr inbounds %class.VPointer, ptr %3, i32 0, i32 1
  %5 = load ptr, ptr %4, align 8
  %6 = call noundef ptr @_ZNK5VLoop5phaseEv(ptr noundef nonnull align 8 dereferenceable(56) %5)
  ret ptr %6
}

; Function Attrs: mustprogress nounwind uwtable
define linkonce_odr hidden noundef zeroext i8 @_ZNK4Type10basic_typeEv(ptr noundef nonnull align 8 dereferenceable(20) %0) #1 comdat align 2 {
  %2 = alloca ptr, align 8
  store ptr %0, ptr %2, align 8
  %3 = load ptr, ptr %2, align 8
  %4 = getelementptr inbounds %class.Type, ptr %3, i32 0, i32 2
  %5 = load i32, ptr %4, align 8
  %6 = zext i32 %5 to i64
  %7 = getelementptr inbounds [0 x %"struct.Type::TypeInfo"], ptr @_ZN4Type10_type_infoE, i64 0, i64 %6
  %8 = getelementptr inbounds %"struct.Type::TypeInfo", ptr %7, i32 0, i32 1
  %9 = load i8, ptr %8, align 4
  ret i8 %9
}

; Function Attrs: mustprogress nounwind uwtable
define hidden noundef ptr @_ZN8VPointer18maybe_negate_invarEbP4Node(ptr noundef nonnull align 8 dereferenceable(64) %0, i1 noundef zeroext %1, ptr noundef %2) #1 align 2 {
  %4 = alloca ptr, align 8
  %5 = alloca i8, align 1
  %6 = alloca ptr, align 8
  %7 = alloca i8, align 1
  %8 = alloca ptr, align 8
  %9 = alloca ptr, align 8
  %10 = alloca ptr, align 8
  store ptr %0, ptr %4, align 8
  %11 = zext i1 %1 to i8
  store i8 %11, ptr %5, align 1
  store ptr %2, ptr %6, align 8
  %12 = load ptr, ptr %4, align 8
  %13 = load i8, ptr %5, align 1
  %14 = trunc i8 %13 to i1
  br i1 %14, label %15, label %40

15:                                               ; preds = %3
  %16 = load ptr, ptr %6, align 8
  %17 = load ptr, ptr %16, align 8
  %18 = getelementptr inbounds ptr, ptr %17, i64 5
  %19 = load ptr, ptr %18, align 8
  %20 = call noundef ptr %19(ptr noundef nonnull align 8 dereferenceable(52) %16)
  %21 = call noundef zeroext i8 @_ZNK4Type10basic_typeEv(ptr noundef nonnull align 8 dereferenceable(20) %20)
  store i8 %21, ptr %7, align 1
  %22 = call noundef ptr @_ZNK8VPointer5phaseEv(ptr noundef nonnull align 8 dereferenceable(64) %12)
  %23 = call noundef nonnull align 8 dereferenceable(2416) ptr @_ZNK14PhaseIdealLoop4igvnEv(ptr noundef nonnull align 8 dereferenceable(237) %22)
  store ptr %23, ptr %8, align 8
  %24 = load ptr, ptr %8, align 8
  %25 = load i8, ptr %7, align 1
  %26 = call noundef ptr @_ZN11PhaseValues7zeroconE9BasicType(ptr noundef nonnull align 8 dereferenceable(2400) %24, i8 noundef zeroext %25)
  store ptr %26, ptr %9, align 8
  %27 = call noundef ptr @_ZNK8VPointer5phaseEv(ptr noundef nonnull align 8 dereferenceable(64) %12)
  %28 = load ptr, ptr %9, align 8
  %29 = call noundef ptr @_ZNK8VPointer5phaseEv(ptr noundef nonnull align 8 dereferenceable(64) %12)
  %30 = getelementptr inbounds i8, ptr %29, i64 8
  %31 = getelementptr inbounds %class.Phase, ptr %30, i32 0, i32 1
  %32 = load ptr, ptr %31, align 8
  %33 = call noundef ptr @_ZNK7Compile4rootEv(ptr noundef nonnull align 8 dereferenceable(2316) %32)
  call void @_ZN14PhaseIdealLoop8set_ctrlEP4NodeS1_(ptr noundef nonnull align 8 dereferenceable(237) %27, ptr noundef %28, ptr noundef %33)
  %34 = load ptr, ptr %9, align 8
  %35 = load ptr, ptr %6, align 8
  %36 = load i8, ptr %7, align 1
  %37 = call noundef ptr @_ZN7SubNode4makeEP4NodeS1_9BasicType(ptr noundef %34, ptr noundef %35, i8 noundef zeroext %36)
  store ptr %37, ptr %10, align 8
  %38 = load ptr, ptr %10, align 8
  %39 = call noundef ptr @_ZNK8VPointer15register_if_newEP4Node(ptr noundef nonnull align 8 dereferenceable(64) %12, ptr noundef %38)
  store ptr %39, ptr %6, align 8
  br label %40

40:                                               ; preds = %15, %3
  %41 = load ptr, ptr %6, align 8
  ret ptr %41
}