; Function Attrs: mustprogress nounwind uwtable
define hidden noundef ptr @_ZN8VPointer18maybe_negate_invarEbP4Node(ptr nocapture noundef nonnull readonly align 8 dereferenceable(64) %0, i1 noundef zeroext %1, ptr noundef %2) local_unnamed_addr #0 align 2 {
  br i1 %1, label %4, label %_ZNK8VPointer15register_if_newEP4Node.exit

4:                                                ; preds = %3
  %5 = load ptr, ptr %2, align 8
  %6 = getelementptr inbounds i8, ptr %5, i64 40
  %7 = load ptr, ptr %6, align 8
  %8 = tail call noundef ptr %7(ptr noundef nonnull align 8 dereferenceable(52) %2) #13
  %9 = getelementptr inbounds i8, ptr %8, i64 16
  %10 = load i32, ptr %9, align 8
  %11 = zext i32 %10 to i64
  %12 = getelementptr inbounds [0 x %"struct.Type::TypeInfo"], ptr @_ZN4Type10_type_infoE, i64 0, i64 %11, i32 1
  %13 = load i8, ptr %12, align 4
  %14 = getelementptr inbounds i8, ptr %0, i64 8
  %15 = load ptr, ptr %14, align 8
  %16 = load ptr, ptr %15, align 8
  %17 = getelementptr inbounds i8, ptr %16, i64 56
  %18 = load ptr, ptr %17, align 8
  %19 = tail call noundef ptr @_ZN11PhaseValues7zeroconE9BasicType(ptr noundef nonnull align 8 dereferenceable(2400) %18, i8 noundef zeroext %13) #13
  %20 = load ptr, ptr %14, align 8
  %21 = load ptr, ptr %20, align 8
  %22 = getelementptr inbounds i8, ptr %21, i64 16
  %23 = load ptr, ptr %22, align 8
  %24 = getelementptr inbounds i8, ptr %23, i64 736
  %25 = load ptr, ptr %24, align 8
  %26 = getelementptr inbounds i8, ptr %19, i64 40
  %27 = load i32, ptr %26, align 8
  %28 = getelementptr inbounds i8, ptr %21, i64 32
  %29 = load i32, ptr %28, align 8
  %.not.i.i = icmp ugt i32 %29, %27
  br i1 %.not.i.i, label %_ZN14PhaseIdealLoop8set_ctrlEP4NodeS1_.exit, label %30

30:                                               ; preds = %4
  %31 = getelementptr inbounds i8, ptr %21, i64 24
  tail call void @_ZN10Node_Array4growEj(ptr noundef nonnull align 8 dereferenceable(24) %31, i32 noundef %27) #13
  br label %_ZN14PhaseIdealLoop8set_ctrlEP4NodeS1_.exit

_ZN14PhaseIdealLoop8set_ctrlEP4NodeS1_.exit:      ; preds = %4, %30
  %32 = ptrtoint ptr %25 to i64
  %33 = add nsw i64 %32, 1
  %34 = inttoptr i64 %33 to ptr
  %35 = getelementptr inbounds i8, ptr %21, i64 40
  %36 = load ptr, ptr %35, align 8
  %37 = zext i32 %27 to i64
  %38 = getelementptr inbounds ptr, ptr %36, i64 %37
  store ptr %34, ptr %38, align 8
  %39 = tail call noundef ptr @_ZN7SubNode4makeEP4NodeS1_9BasicType(ptr noundef nonnull %19, ptr noundef nonnull %2, i8 noundef zeroext %13) #13
  %40 = load ptr, ptr %14, align 8
  %41 = load ptr, ptr %40, align 8
  %42 = getelementptr inbounds i8, ptr %41, i64 56
  %43 = load ptr, ptr %42, align 8
  %44 = getelementptr inbounds i8, ptr %43, i64 32
  %45 = load ptr, ptr %44, align 8
  %46 = tail call noundef ptr @_ZN8NodeHash16hash_find_insertEP4Node(ptr noundef nonnull align 8 dereferenceable(40) %45, ptr noundef %39) #13
  %.not.i = icmp eq ptr %46, null
  br i1 %.not.i, label %48, label %47

47:                                               ; preds = %_ZN14PhaseIdealLoop8set_ctrlEP4NodeS1_.exit
  tail call void @_ZN4Node8destructEP11PhaseValues(ptr noundef nonnull align 8 dereferenceable(52) %39, ptr noundef nonnull %43) #13
  br label %_ZNK8VPointer15register_if_newEP4Node.exit

48:                                               ; preds = %_ZN14PhaseIdealLoop8set_ctrlEP4NodeS1_.exit
  %49 = load ptr, ptr %14, align 8
  %50 = load ptr, ptr %49, align 8
  %51 = tail call noundef ptr @_ZN14PhaseIdealLoop14get_early_ctrlEP4Node(ptr noundef nonnull align 8 dereferenceable(237) %50, ptr noundef %39) #13
  %52 = load ptr, ptr %14, align 8
  %53 = load ptr, ptr %52, align 8
  tail call void @_ZN14PhaseIdealLoop17register_new_nodeEP4NodeS1_(ptr noundef nonnull align 8 dereferenceable(237) %53, ptr noundef %39, ptr noundef %51) #13
  br label %_ZNK8VPointer15register_if_newEP4Node.exit

_ZNK8VPointer15register_if_newEP4Node.exit:       ; preds = %48, %47, %3
  %.0 = phi ptr [ %2, %3 ], [ %46, %47 ], [ %39, %48 ]
  ret ptr %.0
}